Certificate:
    Data:
        Version: 3 (0x2)
        Serial Number:
            3f:03:8c:d1:f1:ff:a3:4e:51:11:b4:fa:4c:69:9f:13
    Signature Algorithm: sha256WithRSAEncryption
        Issuer: CN=ca_invalid
        Validity
            Not Before: Nov 13 04:17:12 2018 GMT
            Not After : Nov 10 04:17:12 2028 GMT
        Subject: CN=localhost
        Subject Public Key Info:
            Public Key Algorithm: rsaEncryption
                Public-Key: (2048 bit)
                Modulus:
                    00:c3:a0:e5:94:e4:bc:3b:68:50:6d:37:fc:bb:fd:
                    6c:eb:1b:62:ca:29:21:3f:0b:3f:e3:f3:b2:bd:46:
                    31:58:d4:90:2f:d1:c3:5e:3f:68:c0:b0:72:62:35:
                    09:1b:80:b5:0a:41:ad:c8:2e:d7:1a:e7:a2:b9:4f:
                    67:75:8a:60:8b:5f:34:25:6f:ad:0c:71:f2:55:38:
                    fe:25:18:37:c1:64:cc:75:ab:98:b4:a4:80:c8:57:
                    7b:ce:06:57:66:6f:7b:26:00:dc:d9:71:e7:0b:73:
                    33:dc:e8:37:49:44:14:66:0c:1f:cc:dc:1d:2a:12:
                    d1:3b:06:41:ef:52:a7:ff:bf:c7:e9:a0:67:b1:95:
                    86:26:56:7f:21:7b:fa:e2:48:9b:d2:37:8e:9a:c5:
                    ea:da:8a:0a:d4:82:62:7b:ef:a3:23:a9:a5:fd:6f:
                    64:33:b7:35:da:bd:c2:d4:5c:f9:c5:bd:a2:a2:2f:
                    dd:4a:95:d6:d9:4c:96:f3:75:db:2f:6f:4c:f2:9d:
                    00:7a:f7:5a:e9:30:23:1d:18:e3:c9:d4:36:28:f7:
                    e0:ff:8b:1a:76:8e:de:ed:c3:6a:ea:99:7b:72:cb:
                    81:24:9a:45:3a:4a:28:6c:b1:ea:2d:8a:2d:e4:01:
                    f0:4d:d4:7b:95:2e:05:9c:14:93:82:88:1c:ae:78:
                    db:01
                Exponent: 65537 (0x10001)
        X509v3 extensions:
            X509v3 Basic Constraints: 
                CA:FALSE
            X509v3 Subject Key Identifier: 
                6D:60:20:E0:33:0D:51:56:08:AD:06:85:2E:DE:E1:08:90:A1:0F:DC
            X509v3 Authority Key Identifier: 
                keyid:81:BA:8B:C2:27:0E:89:08:96:41:8A:55:28:FB:61:C6:9C:CD:96:83
                DirName:/CN=ca_invalid
                serial:EB:BE:89:87:16:C2:E4:02

            X509v3 Extended Key Usage: 
                TLS Web Server Authentication
            X509v3 Key Usage: 
                Digital Signature, Key Encipherment
            X509v3 Subject Alternative Name: 
                DNS:localhost
    Signature Algorithm: sha256WithRSAEncryption
         6d:fa:11:30:f8:42:34:b1:9c:58:2f:ef:d9:43:e9:f6:ff:c0:
         23:72:c6:4c:12:64:8c:f5:b9:9f:81:c1:00:e1:4f:d1:02:fd:
         2d:51:db:00:27:18:1a:48:ec:a6:fe:b3:72:01:9d:17:77:84:
         6b:b5:65:26:4a:d8:7c:ae:27:26:9b:82:ff:a0:39:1e:84:b2:
         17:90:54:f5:e6:5c:e3:72:7f:cf:41:66:ac:78:ce:c6:84:b8:
         5f:ae:10:6d:00:ca:67:0f:a4:db:86:2f:e0:15:50:62:9b:a6:
         86:b2:86:e3:02:1b:1e:f6:3b:13:78:5d:b3:68:9b:db:fd:c6:
         9d:41:56:63:01:e3:14:7f:1b:03:4c:07:34:a2:0b:86:a3:a1:
         fb:1c:cc:aa:e0:3f:5c:9e:a6:f2:03:8e:26:73:41:64:30:df:
         f8:39:fb:65:a7:1c:20:4d:9d:8c:27:eb:95:5d:f4:dd:19:49:
         3e:10:06:68:c2:cd:1c:7d:dc:a9:38:10:c2:f5:74:8b:e7:64:
         be:ed:2d:56:fe:65:fa:bd:2e:10:a6:a8:52:ad:51:5a:90:b5:
         92:11:03:c3:f0:04:15:11:07:e4:64:38:55:c2:1d:2c:b4:82:
         27:a1:2a:e2:22:ad:23:ef:5a:a7:20:7e:5f:d5:07:dd:3d:c3:
         ed:5a:d6:da
-----BEGIN CERTIFICATE-----
MIIDYDCCAkigAwIBAgIQPwOM0fH/o05REbT6TGmfEzANBgkqhkiG9w0BAQsFADAV
MRMwEQYDVQQDDApjYV9pbnZhbGlkMB4XDTE4MTExMzA0MTcxMloXDTI4MTExMDA0
MTcxMlowFDESMBAGA1UEAwwJbG9jYWxob3N0MIIBIjANBgkqhkiG9w0BAQEFAAOC
AQ8AMIIBCgKCAQEAw6DllOS8O2hQbTf8u/1s6xtiyikhPws/4/OyvUYxWNSQL9HD
Xj9owLByYjUJG4C1CkGtyC7XGueiuU9ndYpgi180JW+tDHHyVTj+JRg3wWTMdauY
tKSAyFd7zgZXZm97JgDc2XHnC3Mz3Og3SUQUZgwfzNwdKhLROwZB71Kn/7/H6aBn
sZWGJlZ/IXv64kib0jeOmsXq2ooK1IJie++jI6ml/W9kM7c12r3C1Fz5xb2ioi/d
SpXW2UyW83XbL29M8p0Aevda6TAjHRjjydQ2KPfg/4sado7e7cNq6pl7csuBJJpF
OkoobLHqLYot5AHwTdR7lS4FnBSTgogcrnjbAQIDAQABo4GsMIGpMAkGA1UdEwQC
MAAwHQYDVR0OBBYEFG1gIOAzDVFWCK0GhS7e4QiQoQ/cMEUGA1UdIwQ+MDyAFIG6
i8InDokIlkGKVSj7YcaczZaDoRmkFzAVMRMwEQYDVQQDDApjYV9pbnZhbGlkggkA
676JhxbC5AIwEwYDVR0lBAwwCgYIKwYBBQUHAwEwCwYDVR0PBAQDAgWgMBQGA1Ud
EQQNMAuCCWxvY2FsaG9zdDANBgkqhkiG9w0BAQsFAAOCAQEAbfoRMPhCNLGcWC/v
2UPp9v/AI3LGTBJkjPW5n4HBAOFP0QL9LVHbACcYGkjspv6zcgGdF3eEa7VlJkrY
fK4nJpuC/6A5HoSyF5BU9eZc43J/z0FmrHjOxoS4X64QbQDKZw+k24Yv4BVQYpum
hrKG4wIbHvY7E3hds2ib2/3GnUFWYwHjFH8bA0wHNKILhqOh+xzMquA/XJ6m8gOO
JnNBZDDf+Dn7ZaccIE2djCfrlV303RlJPhAGaMLNHH3cqTgQwvV0i+dkvu0tVv5l
+r0uEKaoUq1RWpC1khEDw/AEFREH5GQ4VcIdLLSCJ6Eq4iKtI+9apyB+X9UH3T3D
7VrW2g==
-----END CERTIFICATE-----
