Certificate:
    Data:
        Version: 3 (0x2)
        Serial Number:
            95:9e:56:b1:49:54:80:a2:f0:e9:f1:24:cd:b5:58:50
    Signature Algorithm: sha256WithRSAEncryption
        Issuer: CN=ca
        Validity
            Not Before: Nov 14 10:01:32 2018 GMT
            Not After : Nov 11 10:01:32 2028 GMT
        Subject: CN=client2
        Subject Public Key Info:
            Public Key Algorithm: rsaEncryption
                Public-Key: (2048 bit)
                Modulus:
                    00:d7:5b:c5:a0:07:e4:ad:c6:a1:b4:df:79:54:a6:
                    7c:fb:78:fa:60:44:a4:27:7f:20:55:ac:80:58:bd:
                    5c:e2:aa:f3:f2:2f:ff:6c:bb:14:3b:ce:7e:b9:53:
                    d3:08:35:5e:85:8b:09:90:28:93:6f:2c:2f:18:60:
                    aa:bc:69:6a:6c:d6:46:3d:94:80:ab:e2:26:10:d7:
                    9a:1e:13:55:32:2d:39:8c:34:bd:3d:07:74:17:bf:
                    bf:ed:3b:83:b2:82:ee:79:87:9f:80:66:24:81:98:
                    d0:15:d2:c3:de:64:9d:65:c7:aa:77:d9:3d:28:30:
                    2c:d9:f0:e7:64:64:1e:20:b6:93:5f:a2:4a:c0:28:
                    11:5e:2e:c1:d4:f0:39:31:e2:53:e2:4d:af:ce:2c:
                    2a:6b:af:4c:70:84:52:e1:86:22:ad:dd:56:1a:5d:
                    7b:83:47:a0:91:2a:6e:31:f0:80:5c:37:f3:4d:71:
                    f2:fe:7a:99:9f:ee:90:e2:32:fe:38:3c:5c:91:d7:
                    5e:94:61:d5:45:3d:2d:08:2f:e7:4e:ec:66:ea:81:
                    19:a9:02:87:3d:40:2a:f1:35:84:e9:a2:3f:c4:ba:
                    23:60:c8:74:9e:80:0a:83:48:4b:a1:2f:45:48:b3:
                    19:8f:90:75:1f:a9:45:90:6f:60:db:25:dd:aa:b1:
                    dc:03
                Exponent: 65537 (0x10001)
        X509v3 extensions:
            X509v3 Basic Constraints: 
                CA:FALSE
            X509v3 Subject Key Identifier: 
                79:B6:36:49:6A:C7:00:37:BB:54:CD:CA:33:E5:3E:22:1D:A3:A1:6B
            X509v3 Authority Key Identifier: 
                keyid:EB:DA:A3:FB:93:49:0A:BA:4D:DA:2C:14:7A:E5:A6:DB:57:57:A8:AA
                DirName:/CN=ca
                serial:A1:EC:68:BC:0F:EB:41:04

            X509v3 Extended Key Usage: 
                TLS Web Client Authentication
            X509v3 Key Usage: 
                Digital Signature
    Signature Algorithm: sha256WithRSAEncryption
         e4:89:f1:24:37:57:ee:2a:df:7a:be:0c:87:c4:bf:13:95:24:
         ad:81:32:15:53:d5:44:3f:31:56:45:1d:6f:c5:87:86:58:29:
         3d:6b:86:7a:78:7a:a3:1a:8e:ca:e6:8a:48:8a:3b:ae:40:29:
         ca:10:8a:87:6e:5c:76:9d:78:75:0b:c5:af:19:88:e4:93:14:
         5c:44:dc:55:09:56:c8:0e:f0:a1:1e:80:27:a2:7e:f6:22:d0:
         ad:d0:be:b2:92:ab:b6:bc:52:d5:fa:43:36:ea:9d:4a:85:7d:
         fd:7c:11:c3:5e:72:37:5a:39:bc:31:73:47:22:aa:fe:92:b9:
         29:d1:f8:6c:61:a5:94:9e:6d:ca:ca:01:75:5f:50:5f:6f:10:
         a5:cd:9c:52:f2:54:4b:00:1a:67:2a:df:51:28:e2:8b:f6:17:
         86:16:13:5d:73:41:d6:06:07:a7:6b:36:d6:93:23:ea:f5:cb:
         78:48:0f:e5:82:f3:66:c5:af:3a:f3:f4:ec:46:91:09:9a:1b:
         35:63:01:13:7e:18:80:36:64:86:cd:08:fb:24:c6:e2:3a:b6:
         45:3f:4a:48:22:7c:ea:1b:40:37:ef:4b:2c:38:6d:e7:c3:9a:
         93:27:cb:75:59:69:bb:ca:fd:a8:2e:16:b9:22:40:6a:76:a5:
         18:6b:bd:5d
-----BEGIN CERTIFICATE-----
MIIDOTCCAiGgAwIBAgIRAJWeVrFJVICi8OnxJM21WFAwDQYJKoZIhvcNAQELBQAw
DTELMAkGA1UEAwwCY2EwHhcNMTgxMTE0MTAwMTMyWhcNMjgxMTExMTAwMTMyWjAS
MRAwDgYDVQQDDAdjbGllbnQyMIIBIjANBgkqhkiG9w0BAQEFAAOCAQ8AMIIBCgKC
AQEA11vFoAfkrcahtN95VKZ8+3j6YESkJ38gVayAWL1c4qrz8i//bLsUO85+uVPT
CDVehYsJkCiTbywvGGCqvGlqbNZGPZSAq+ImENeaHhNVMi05jDS9PQd0F7+/7TuD
soLueYefgGYkgZjQFdLD3mSdZceqd9k9KDAs2fDnZGQeILaTX6JKwCgRXi7B1PA5
MeJT4k2vziwqa69McIRS4YYird1WGl17g0egkSpuMfCAXDfzTXHy/nqZn+6Q4jL+
ODxckddelGHVRT0tCC/nTuxm6oEZqQKHPUAq8TWE6aI/xLojYMh0noAKg0hLoS9F
SLMZj5B1H6lFkG9g2yXdqrHcAwIDAQABo4GOMIGLMAkGA1UdEwQCMAAwHQYDVR0O
BBYEFHm2NklqxwA3u1TNyjPlPiIdo6FrMD0GA1UdIwQ2MDSAFOvao/uTSQq6Tdos
FHrlpttXV6iqoRGkDzANMQswCQYDVQQDDAJjYYIJAKHsaLwP60EEMBMGA1UdJQQM
MAoGCCsGAQUFBwMCMAsGA1UdDwQEAwIHgDANBgkqhkiG9w0BAQsFAAOCAQEA5Inx
JDdX7irfer4Mh8S/E5UkrYEyFVPVRD8xVkUdb8WHhlgpPWuGenh6oxqOyuaKSIo7
rkApyhCKh25cdp14dQvFrxmI5JMUXETcVQlWyA7woR6AJ6J+9iLQrdC+spKrtrxS
1fpDNuqdSoV9/XwRw15yN1o5vDFzRyKq/pK5KdH4bGGllJ5tysoBdV9QX28Qpc2c
UvJUSwAaZyrfUSjii/YXhhYTXXNB1gYHp2s21pMj6vXLeEgP5YLzZsWvOvP07EaR
CZobNWMBE34YgDZkhs0I+yTG4jq2RT9KSCJ86htAN+9LLDht58OakyfLdVlpu8r9
qC4WuSJAanalGGu9XQ==
-----END CERTIFICATE-----
