Certificate:
    Data:
        Version: 3 (0x2)
        Serial Number:
            85:ff:51:e2:ca:e5:f4:0b:30:3b:e9:99:4f:f6:fc:17
    Signature Algorithm: sha256WithRSAEncryption
        Issuer: CN=ca
        Validity
            Not Before: Nov 13 04:07:38 2018 GMT
            Not After : Nov 10 04:07:38 2028 GMT
        Subject: CN=localhost
        Subject Public Key Info:
            Public Key Algorithm: rsaEncryption
                Public-Key: (2048 bit)
                Modulus:
                    00:cb:7c:90:ed:f4:6a:a6:63:e2:e6:cd:73:a4:c4:
                    58:37:0e:86:11:56:07:f0:8b:4d:ff:da:98:4d:ce:
                    dc:08:33:2b:12:19:d4:70:7d:a8:67:04:e0:c4:55:
                    ae:92:11:97:38:da:ea:c6:cb:a4:e9:23:56:57:66:
                    23:37:a7:75:75:66:0d:ba:28:79:14:96:93:10:bf:
                    94:e6:ea:4b:f9:91:b0:bd:cd:ab:8e:6d:a1:e2:51:
                    ea:6d:a2:e4:a1:d6:28:99:ea:a2:4d:e5:e0:08:36:
                    e0:b3:71:66:84:4d:b9:e1:04:95:43:e7:1c:0b:73:
                    4d:45:79:fb:c6:87:58:6f:34:a2:56:ed:b4:e5:52:
                    dd:71:7b:d0:ce:6d:76:07:2b:40:a9:e2:7c:46:70:
                    87:69:6c:01:16:04:2a:45:62:ce:20:6f:d6:4b:9c:
                    3a:5d:74:32:66:5a:53:d7:46:fb:4c:4d:cf:6f:b4:
                    a2:cf:e0:7f:5c:b4:bc:b2:b0:f2:46:bf:60:a2:74:
                    fe:ae:e7:c2:82:50:ae:d9:1d:55:fc:e0:92:7b:81:
                    62:6a:e5:14:ed:21:a4:7c:b7:5a:e5:e7:35:15:64:
                    2f:39:f1:10:c6:3b:17:b2:53:f7:ab:49:88:c2:67:
                    0a:16:e7:55:1a:48:4a:e4:99:cb:c3:42:43:81:14:
                    84:63
                Exponent: 65537 (0x10001)
        X509v3 extensions:
            X509v3 Basic Constraints: 
                CA:FALSE
            X509v3 Subject Key Identifier: 
                03:C7:49:32:E1:8B:D5:DF:4E:F4:2D:E9:C6:E0:FF:B9:36:B8:90:BB
            X509v3 Authority Key Identifier: 
                keyid:5A:7E:D0:E2:73:46:39:CD:2A:34:36:86:3B:B4:48:41:51:6C:A1:37
                DirName:/CN=ca
                serial:E7:69:C0:BC:36:B5:43:BB

            X509v3 Extended Key Usage: 
                TLS Web Server Authentication
            X509v3 Key Usage: 
                Digital Signature, Key Encipherment
            X509v3 Subject Alternative Name: 
                DNS:localhost
    Signature Algorithm: sha256WithRSAEncryption
         94:28:7c:67:6b:a8:f2:53:89:26:0a:4f:54:15:6c:8f:36:48:
         e5:c4:85:99:f9:0e:c5:17:24:05:37:dc:6f:54:08:09:c6:2f:
         23:be:ce:66:bb:38:af:77:9c:43:13:dd:73:bd:80:54:75:4c:
         85:70:0e:d8:e4:49:27:37:03:11:f7:73:d9:9c:34:8b:e6:8b:
         17:20:79:bd:16:bf:fb:bd:52:a8:57:b0:a9:74:66:52:fd:74:
         b1:c6:9a:1c:04:b9:dd:c3:77:7d:a8:5b:e4:7a:fe:97:cb:13:
         56:f0:01:c7:af:e2:d0:a2:4b:e1:56:c8:32:7f:ab:78:f5:56:
         3a:93:db:6e:46:48:52:83:8e:2a:5e:86:c7:d6:2e:8a:85:57:
         eb:4e:73:25:b7:29:14:8c:ed:03:74:82:a1:e0:38:3d:99:eb:
         b2:44:7e:73:76:dd:e7:42:e8:6f:09:d5:b3:ae:6d:a3:05:93:
         87:a4:dc:02:55:34:20:19:b4:c8:8e:f8:f8:32:88:ad:29:4b:
         91:3e:ad:74:32:f8:93:53:27:b6:8f:5a:82:ed:8e:61:55:28:
         a3:a3:ba:7a:49:ab:b8:9a:90:1b:db:5d:ab:d7:b0:ee:13:8d:
         ed:8d:07:77:8f:b5:3e:25:12:2c:53:4f:8f:6d:d1:1e:53:72:
         fc:a7:b1:38
-----BEGIN CERTIFICATE-----
MIIDUTCCAjmgAwIBAgIRAIX/UeLK5fQLMDvpmU/2/BcwDQYJKoZIhvcNAQELBQAw
DTELMAkGA1UEAwwCY2EwHhcNMTgxMTEzMDQwNzM4WhcNMjgxMTEwMDQwNzM4WjAU
MRIwEAYDVQQDDAlsb2NhbGhvc3QwggEiMA0GCSqGSIb3DQEBAQUAA4IBDwAwggEK
AoIBAQDLfJDt9GqmY+LmzXOkxFg3DoYRVgfwi03/2phNztwIMysSGdRwfahnBODE
Va6SEZc42urGy6TpI1ZXZiM3p3V1Zg26KHkUlpMQv5Tm6kv5kbC9zauObaHiUept
ouSh1iiZ6qJN5eAINuCzcWaETbnhBJVD5xwLc01FefvGh1hvNKJW7bTlUt1xe9DO
bXYHK0Cp4nxGcIdpbAEWBCpFYs4gb9ZLnDpddDJmWlPXRvtMTc9vtKLP4H9ctLyy
sPJGv2CidP6u58KCUK7ZHVX84JJ7gWJq5RTtIaR8t1rl5zUVZC858RDGOxeyU/er
SYjCZwoW51UaSErkmcvDQkOBFIRjAgMBAAGjgaQwgaEwCQYDVR0TBAIwADAdBgNV
HQ4EFgQUA8dJMuGL1d9O9C3pxuD/uTa4kLswPQYDVR0jBDYwNIAUWn7Q4nNGOc0q
NDaGO7RIQVFsoTehEaQPMA0xCzAJBgNVBAMMAmNhggkA52nAvDa1Q7swEwYDVR0l
BAwwCgYIKwYBBQUHAwEwCwYDVR0PBAQDAgWgMBQGA1UdEQQNMAuCCWxvY2FsaG9z
dDANBgkqhkiG9w0BAQsFAAOCAQEAlCh8Z2uo8lOJJgpPVBVsjzZI5cSFmfkOxRck
BTfcb1QICcYvI77OZrs4r3ecQxPdc72AVHVMhXAO2ORJJzcDEfdz2Zw0i+aLFyB5
vRa/+71SqFewqXRmUv10scaaHAS53cN3fahb5Hr+l8sTVvABx6/i0KJL4VbIMn+r
ePVWOpPbbkZIUoOOKl6Gx9YuioVX605zJbcpFIztA3SCoeA4PZnrskR+c3bd50Lo
bwnVs65towWTh6TcAlU0IBm0yI74+DKIrSlLkT6tdDL4k1Mnto9agu2OYVUoo6O6
ekmruJqQG9tdq9ew7hON7Y0Hd4+1PiUSLFNPj23RHlNy/KexOA==
-----END CERTIFICATE-----
