Certificate:
    Data:
        Version: 3 (0x2)
        Serial Number:
            9f:67:d9:b3:73:31:5c:f7:5a:fc:bb:74:87:e8:d2:e4
    Signature Algorithm: sha256WithRSAEncryption
        Issuer: CN=ca
        Validity
            Not Before: Nov 13 04:08:26 2018 GMT
            Not After : Nov 10 04:08:26 2028 GMT
        Subject: CN=client0
        Subject Public Key Info:
            Public Key Algorithm: rsaEncryption
                Public-Key: (2048 bit)
                Modulus:
                    00:b1:e9:af:d3:ea:0f:f4:c4:b8:1d:78:ec:55:21:
                    1d:ea:25:bb:8b:87:98:26:8a:97:90:fe:34:b0:1d:
                    5a:e7:eb:9a:87:0b:7e:a8:bc:17:78:38:2e:df:95:
                    11:8c:8e:41:bf:59:f6:1a:d8:68:7e:04:83:69:20:
                    c2:4a:b9:64:6d:48:c3:ad:f1:00:2d:a4:05:95:62:
                    0a:a2:77:49:fb:d9:25:8d:7f:09:99:65:09:2c:1c:
                    a4:d2:05:24:fe:a1:83:ff:67:01:fe:29:c0:57:b1:
                    5e:d3:9b:ca:46:93:3e:fa:9b:e6:1e:10:a5:64:72:
                    3d:81:ac:e8:46:85:64:1a:13:12:1e:d7:2e:d1:10:
                    29:73:c1:fd:65:79:30:a1:71:23:95:c2:b1:d8:dc:
                    22:d6:3c:86:c7:81:b4:72:7e:c4:2e:1d:5c:f6:96:
                    28:eb:86:39:ae:08:53:9f:d5:fb:b7:8b:29:12:fd:
                    fb:9b:15:13:68:eb:ce:76:d3:90:e5:2a:20:e8:8a:
                    50:7e:cd:18:3f:a9:28:55:04:62:c4:86:1b:f9:8a:
                    8a:19:85:03:e2:a5:58:c6:e3:cc:6e:91:a0:10:92:
                    c7:f8:aa:3c:b7:76:a2:ec:75:34:69:cd:94:db:46:
                    93:d3:57:09:c3:4c:a5:de:a1:cb:52:ea:bd:48:e4:
                    d0:6f
                Exponent: 65537 (0x10001)
        X509v3 extensions:
            X509v3 Basic Constraints: 
                CA:FALSE
            X509v3 Subject Key Identifier: 
                89:74:94:63:21:D4:54:51:7C:C1:A4:33:9B:4F:99:19:D2:B9:E6:F9
            X509v3 Authority Key Identifier: 
                keyid:5A:7E:D0:E2:73:46:39:CD:2A:34:36:86:3B:B4:48:41:51:6C:A1:37
                DirName:/CN=ca
                serial:E7:69:C0:BC:36:B5:43:BB

            X509v3 Extended Key Usage: 
                TLS Web Client Authentication
            X509v3 Key Usage: 
                Digital Signature
    Signature Algorithm: sha256WithRSAEncryption
         31:32:0a:df:5b:a3:3a:b7:53:61:59:06:52:9c:e6:f5:3d:07:
         b1:e1:63:b8:ae:94:52:9f:0f:89:57:36:50:dc:08:8c:58:ab:
         72:2e:8c:fd:1f:b7:a3:78:10:56:1e:76:94:94:74:5c:f1:f6:
         2a:94:17:fa:e3:a4:78:60:fa:14:19:68:1c:fe:ca:37:cf:23:
         40:a3:dd:10:02:aa:f9:aa:68:e7:23:96:f5:47:9a:fb:3a:d6:
         c5:f4:c5:6f:13:e9:ed:fd:6c:3f:d2:83:02:39:5f:cf:ae:fa:
         a8:29:c6:70:5d:d0:19:6c:ba:e6:fc:59:75:fa:3d:8e:13:c3:
         b4:b1:be:8f:05:09:94:35:34:a5:b6:27:c1:b6:97:08:8b:b6:
         eb:4c:45:e4:3c:79:84:77:4c:40:44:3c:d3:a6:35:1e:ec:90:
         e8:a3:26:07:96:84:68:f5:ca:e1:37:62:70:a8:18:10:4d:5d:
         07:49:df:fb:6f:1b:79:44:6f:53:60:01:33:e7:8b:55:39:cb:
         4a:28:0d:68:97:4e:c9:2e:d3:b4:76:e3:b7:43:b9:f5:6a:6a:
         4a:6c:9f:75:63:4d:44:c4:d2:9e:5e:cf:36:0b:7b:4d:78:09:
         d2:ea:b2:dc:d2:1d:aa:c4:4d:12:85:1b:b3:07:9f:4e:4a:ae:
         a9:b1:b4:d5
-----BEGIN CERTIFICATE-----
MIIDOTCCAiGgAwIBAgIRAJ9n2bNzMVz3Wvy7dIfo0uQwDQYJKoZIhvcNAQELBQAw
DTELMAkGA1UEAwwCY2EwHhcNMTgxMTEzMDQwODI2WhcNMjgxMTEwMDQwODI2WjAS
MRAwDgYDVQQDDAdjbGllbnQwMIIBIjANBgkqhkiG9w0BAQEFAAOCAQ8AMIIBCgKC
AQEAsemv0+oP9MS4HXjsVSEd6iW7i4eYJoqXkP40sB1a5+uahwt+qLwXeDgu35UR
jI5Bv1n2GthofgSDaSDCSrlkbUjDrfEALaQFlWIKondJ+9kljX8JmWUJLByk0gUk
/qGD/2cB/inAV7Fe05vKRpM++pvmHhClZHI9gazoRoVkGhMSHtcu0RApc8H9ZXkw
oXEjlcKx2Nwi1jyGx4G0cn7ELh1c9pYo64Y5rghTn9X7t4spEv37mxUTaOvOdtOQ
5Sog6IpQfs0YP6koVQRixIYb+YqKGYUD4qVYxuPMbpGgEJLH+Ko8t3ai7HU0ac2U
20aT01cJw0yl3qHLUuq9SOTQbwIDAQABo4GOMIGLMAkGA1UdEwQCMAAwHQYDVR0O
BBYEFIl0lGMh1FRRfMGkM5tPmRnSueb5MD0GA1UdIwQ2MDSAFFp+0OJzRjnNKjQ2
hju0SEFRbKE3oRGkDzANMQswCQYDVQQDDAJjYYIJAOdpwLw2tUO7MBMGA1UdJQQM
MAoGCCsGAQUFBwMCMAsGA1UdDwQEAwIHgDANBgkqhkiG9w0BAQsFAAOCAQEAMTIK
31ujOrdTYVkGUpzm9T0HseFjuK6UUp8PiVc2UNwIjFirci6M/R+3o3gQVh52lJR0
XPH2KpQX+uOkeGD6FBloHP7KN88jQKPdEAKq+apo5yOW9Uea+zrWxfTFbxPp7f1s
P9KDAjlfz676qCnGcF3QGWy65vxZdfo9jhPDtLG+jwUJlDU0pbYnwbaXCIu260xF
5Dx5hHdMQEQ806Y1HuyQ6KMmB5aEaPXK4TdicKgYEE1dB0nf+28beURvU2ABM+eL
VTnLSigNaJdOyS7TtHbjt0O59WpqSmyfdWNNRMTSnl7PNgt7TXgJ0uqy3NIdqsRN
EoUbswefTkquqbG01Q==
-----END CERTIFICATE-----
